(dp1
S'userguess'
p2
(dp3
S'type'
p4
S'string'
p5
sS'sortable'
p6
I5
sS'sql'
p7
S'CHAR(512)'
p8
ssS'referenceword'
p9
(dp10
g4
g5
sg6
I4
sg7
S'CHAR(512)'
p11
ssS'sentenceid'
p12
(dp13
g4
S'integer'
p14
sg6
I2
sg7
S'INTEGER'
p15
ssS'hintlevel'
p16
(dp17
g4
g5
sg6
I3
sg7
S'CHAR(512)'
p18
ssS'id'
p19
(dp20
g4
S'id'
p21
sg6
I1
sg7
S'INTEGER PRIMARY KEY AUTOINCREMENT'
p22
ss.